(lp0
(lp1
I11
aI3
aI0
aI0
aa(lp2
I4
aI0
aI2
aI5
aa(lp3
I14
aI0
aI0
aI1
aa(lp4
I3
aI0
aI0
aI0
aa(lp5
I11
aI5
aI1
aI0
aa(lp6
I2
aI2
aI3
aI0
aa(lp7
I14
aI3
aI0
aI0
aa(lp8
I2
aI0
aI0
aI0
aa(lp9
I7
aI0
aI1
aI0
aa(lp10
I14
aI3
aI0
aI2
aa(lp11
I0
aI1
aI0
aI0
aa(lp12
I10
aI1
aI0
aI0
aa(lp13
I6
aI1
aI0
aI0
aa(lp14
I0
aI1
aI0
aI0
aa(lp15
I0
aI1
aI1
aI1
aa(lp16
I1
aI1
aI0
aI0
aa(lp17
I16
aI3
aI1
aI0
aa(lp18
I8
aI8
aI0
aI2
aa(lp19
I3
aI2
aI0
aI0
aa(lp20
I0
aI0
aI0
aI0
aa(lp21
I16
aI3
aI0
aI0
aa(lp22
I1
aI1
aI0
aI0
aa(lp23
I5
aI3
aI1
aI0
aa(lp24
I14
aI6
aI0
aI0
aa(lp25
I1
aI3
aI0
aI0
aa(lp26
I11
aI0
aI0
aI0
aa(lp27
I10
aI10
aI0
aI0
aa(lp28
I1
aI0
aI2
aI1
aa(lp29
I15
aI4
aI0
aI1
aa(lp30
I0
aI1
aI0
aI2
aa(lp31
I15
aI3
aI3
aI0
aa(lp32
I0
aI1
aI1
aI0
aa(lp33
I4
aI6
aI1
aI1
aa(lp34
I1
aI1
aI0
aI2
aa(lp35
I2
aI3
aI1
aI2
aa(lp36
I16
aI9
aI0
aI0
aa(lp37
I18
aI2
aI0
aI0
aa(lp38
I1
aI1
aI2
aI0
aa(lp39
I5
aI2
aI0
aI0
aa(lp40
I0
aI1
aI0
aI0
aa(lp41
I5
aI0
aI1
aI0
aa(lp42
I0
aI0
aI0
aI1
aa(lp43
I7
aI0
aI0
aI0
aa(lp44
I13
aI3
aI0
aI1
aa(lp45
I18
aI0
aI0
aI2
aa(lp46
I20
aI0
aI1
aI1
aa(lp47
I3
aI1
aI2
aI0
aa(lp48
I7
aI0
aI1
aI0
aa(lp49
I0
aI2
aI1
aI1
aa(lp50
I21
aI2
aI0
aI0
aa(lp51
I1
aI0
aI0
aI0
aa(lp52
I3
aI3
aI0
aI0
aa(lp53
I3
aI0
aI0
aI0
aa(lp54
I1
aI3
aI2
aI2
aa(lp55
I1
aI0
aI0
aI0
aa(lp56
I11
aI5
aI0
aI0
aa(lp57
I3
aI0
aI1
aI1
aa(lp58
I0
aI1
aI0
aI0
aa(lp59
I0
aI1
aI1
aI0
aa(lp60
I0
aI1
aI0
aI3
aa(lp61
I0
aI1
aI2
aI2
aa(lp62
I0
aI2
aI0
aI0
aa(lp63
I14
aI1
aI0
aI1
aa(lp64
I1
aI0
aI0
aI0
aa(lp65
I3
aI5
aI0
aI0
aa(lp66
I0
aI0
aI1
aI0
aa(lp67
I0
aI2
aI0
aI2
aa(lp68
I14
aI0
aI2
aI0
aa(lp69
I1
aI6
aI0
aI3
aa(lp70
I1
aI1
aI4
aI3
aa(lp71
I0
aI1
aI0
aI0
aa(lp72
I5
aI5
aI0
aI1
aa(lp73
I11
aI4
aI1
aI0
aa(lp74
I2
aI0
aI6
aI3
aa(lp75
I0
aI0
aI0
aI1
aa(lp76
I13
aI0
aI1
aI0
aa(lp77
I1
aI0
aI0
aI0
aa(lp78
I4
aI3
aI0
aI1
aa(lp79
I4
aI2
aI2
aI0
aa(lp80
I9
aI0
aI0
aI1
aa.