(lp0
(lp1
I-33
aI0
aa(lp2
I0
aI-2
aa(lp3
I353
aI0
aa(lp4
I-127
aI0
aa(lp5
I148
aI0
aa(lp6
I78
aI0
aa(lp7
I232
aI1
aa(lp8
I0
aI4
aa(lp9
I127
aI0
aa(lp10
I176
aI0
aa(lp11
I29
aI3
aa(lp12
I373
aI2
aa(lp13
I270
aI2
aa(lp14
I490
aI0
aa(lp15
I248
aI2
aa(lp16
I406
aI0
aa(lp17
I920
aI1
aa(lp18
I1067
aI0
aa(lp19
I515
aI0
aa(lp20
I27
aI0
aa(lp21
I471
aI-1
aa(lp22
I62
aI-1
aa(lp23
I68
aI0
aa(lp24
I47
aI0
aa(lp25
I593
aI2
aa(lp26
I919
aI2
aa(lp27
I1008
aI1
aa(lp28
I36
aI0
aa(lp29
I50
aI0
aa(lp30
I-22
aI6
aa(lp31
I126
aI0
aa(lp32
I534
aI5
aa(lp33
I110
aI1
aa(lp34
I26
aI0
aa(lp35
I0
aI0
aa(lp36
I21
aI0
aa(lp37
I631
aI1
aa(lp38
I124
aI0
aa(lp39
I0
aI1
aa(lp40
I47
aI-1
aa(lp41
I-23
aI0
aa(lp42
I0
aI0
aa(lp43
I0
aI0
aa(lp44
I161
aI0
aa(lp45
I570
aI1
aa(lp46
I337
aI0
aa(lp47
I750
aI1
aa(lp48
I278
aI1
aa(lp49
I40
aI0
aa(lp50
I-26
aI0
aa(lp51
I240
aI1
aa(lp52
I123
aI2
aa(lp53
I256
aI1
aa(lp54
I132
aI2
aa(lp55
I-127
aI0
aa(lp56
I467
aI1
aa(lp57
I153
aI0
aa(lp58
I150
aI0
aa(lp59
I610
aI2
aa(lp60
I21
aI6
aa(lp61
I408
aI-1
aa(lp62
I158
aI0
aa(lp63
I321
aI2
aa(lp64
I360
aI0
aa(lp65
I118
aI0
aa(lp66
I-54
aI0
aa(lp67
I42
aI0
aa(lp68
I391
aI0
aa(lp69
I98
aI0
aa(lp70
I-131
aI1
aa(lp71
I-9
aI-1
aa(lp72
I459
aI1
aa(lp73
I180
aI1
aa(lp74
I175
aI0
aa(lp75
I967
aI0
aa(lp76
I261
aI0
aa(lp77
I143
aI1
aa(lp78
I211
aI2
aa(lp79
I89
aI1
aa(lp80
I-50
aI2
aa.